target datalayout = "e-m:e-p270:32:32-p271:32:32-p272:64:64-i64:64-i128:128-f80:128-n8:16:32:64-S128"
target triple = "x86_64-pc-linux-gnu"

%"class.std::__1::basic_string" = type { %"class.std::__1::__compressed_pair.26" }
%"class.std::__1::__compressed_pair.26" = type { %"struct.std::__1::__compressed_pair_elem.27" }
%"struct.std::__1::__compressed_pair_elem.27" = type { %"struct.std::__1::basic_string<char>::__rep" }
%"struct.std::__1::basic_string<char>::__rep" = type { %union.anon }
%union.anon = type { %"struct.std::__1::basic_string<char>::__long" }
%"struct.std::__1::basic_string<char>::__long" = type { %struct.anon.28, i64, ptr }
%struct.anon.28 = type { i64 }
%"class.std::__1::vector.33" = type { ptr, ptr, %"class.std::__1::__compressed_pair.34" }
%"class.std::__1::__compressed_pair.34" = type { %"struct.std::__1::__compressed_pair_elem.35" }
%"struct.std::__1::__compressed_pair_elem.35" = type { ptr }
%"struct.mitsuba::TensorFile::Field" = type { i32, i64, %"class.std::__1::vector.33", ptr }
%"class.mitsuba::TensorFile" = type { %"class.mitsuba::MemoryMappedFile", %"class.std::__1::unordered_map" }
%"class.mitsuba::MemoryMappedFile" = type { %"class.mitsuba::Object.base", %"class.std::__1::unique_ptr" }
%"class.mitsuba::Object.base" = type <{ ptr, %"struct.std::__1::atomic" }>
%"struct.std::__1::atomic" = type { %"struct.std::__1::__atomic_base" }
%"struct.std::__1::__atomic_base" = type { %"struct.std::__1::__atomic_base.0" }
%"struct.std::__1::__atomic_base.0" = type { %"struct.std::__1::__cxx_atomic_impl" }
%"struct.std::__1::__cxx_atomic_impl" = type { %"struct.std::__1::__cxx_atomic_base_impl" }
%"struct.std::__1::__cxx_atomic_base_impl" = type { i32 }
%"class.std::__1::unique_ptr" = type { %"class.std::__1::__compressed_pair" }
%"class.std::__1::__compressed_pair" = type { %"struct.std::__1::__compressed_pair_elem" }
%"struct.std::__1::__compressed_pair_elem" = type { ptr }
%"class.std::__1::unordered_map" = type { %"class.std::__1::__hash_table" }
%"class.std::__1::__hash_table" = type <{ %"class.std::__1::unique_ptr.2", %"class.std::__1::__compressed_pair.9", %"class.std::__1::__compressed_pair.15", %"class.std::__1::__compressed_pair.17", [4 x i8] }>
%"class.std::__1::unique_ptr.2" = type { %"class.std::__1::__compressed_pair.3" }
%"class.std::__1::__compressed_pair.3" = type { %"struct.std::__1::__compressed_pair_elem.4", %"struct.std::__1::__compressed_pair_elem.5" }
%"struct.std::__1::__compressed_pair_elem.4" = type { ptr }
%"struct.std::__1::__compressed_pair_elem.5" = type { %"class.std::__1::__bucket_list_deallocator" }
%"class.std::__1::__bucket_list_deallocator" = type { %"class.std::__1::__compressed_pair.6" }
%"class.std::__1::__compressed_pair.6" = type { %"struct.std::__1::__compressed_pair_elem.7" }
%"struct.std::__1::__compressed_pair_elem.7" = type { i64 }
%"class.std::__1::__compressed_pair.9" = type { %"struct.std::__1::__compressed_pair_elem.10" }
%"struct.std::__1::__compressed_pair_elem.10" = type { %"struct.std::__1::__hash_node_base" }
%"struct.std::__1::__hash_node_base" = type { ptr }
%"class.std::__1::__compressed_pair.15" = type { %"struct.std::__1::__compressed_pair_elem.7" }
%"class.std::__1::__compressed_pair.17" = type { %"struct.std::__1::__compressed_pair_elem.18" }
%"struct.std::__1::__compressed_pair_elem.18" = type { float }
%"struct.std::__1::pair" = type { %"class.std::__1::basic_string", %"struct.mitsuba::TensorFile::Field" }
%"class.std::__1::__hash_map_const_iterator" = type { %"class.std::__1::__hash_const_iterator" }
%"class.std::__1::__hash_const_iterator" = type { ptr }
%"struct.std::__1::__hash_node" = type { %"struct.std::__1::__hash_node_base", i64, %union.anon.47 }
%union.anon.47 = type { %"struct.std::__1::__hash_value_type" }
%"struct.std::__1::__hash_value_type" = type { %"struct.std::__1::pair" }

@_ZN7mitsuba10TensorFile7m_classE = global ptr null, align 8
@.str = private unnamed_addr constant [115 x i8] c"generated/home/dtcxzyw/WorkSpace/Projects/compilers/llvm-opt-benchmark/bench/mitsuba3/mitsuba3/src/core/tensor.cpp\00", align 1
@.str.9 = private unnamed_addr constant [34 x i8] c"TensorFile: field \22%s\22 not found!\00", align 1

; Function Attrs: mustprogress nounwind uwtable
define linkonce_odr hidden noundef ptr @_ZNSt3__19__launderB8ne190000IKNS_4pairIKNS_12basic_stringIcNS_11char_traitsIcEENS_9allocatorIcEEEEN7mitsuba10TensorFile5FieldEEEEEPT_SF_(ptr noundef %0) #2 comdat {
  %2 = alloca ptr, align 8
  store ptr %0, ptr %2, align 8
  %3 = load ptr, ptr %2, align 8
  ret ptr %3
}

; Function Attrs: mustprogress nounwind uwtable
define linkonce_odr hidden noundef ptr @_ZNSt3__114pointer_traitsIPNS_16__hash_node_baseIPNS_11__hash_nodeINS_17__hash_value_typeINS_12basic_stringIcNS_11char_traitsIcEENS_9allocatorIcEEEEN7mitsuba10TensorFile5FieldEEEPvEEEEE10pointer_toB8ne190000ERSH_(ptr noundef nonnull align 8 dereferenceable(8) %0) #2 comdat align 2 {
  %2 = alloca ptr, align 8
  store ptr %0, ptr %2, align 8
  %3 = load ptr, ptr %2, align 8
  ret ptr %3
}

; Function Attrs: mustprogress nounwind uwtable
define linkonce_odr hidden noundef ptr @_ZNSt3__17launderB8ne190000IKNS_4pairIKNS_12basic_stringIcNS_11char_traitsIcEENS_9allocatorIcEEEEN7mitsuba10TensorFile5FieldEEEEEPT_SF_(ptr noundef %0) #2 comdat {
  %2 = alloca ptr, align 8
  store ptr %0, ptr %2, align 8
  %3 = load ptr, ptr %2, align 8
  %4 = call noundef ptr @_ZNSt3__19__launderB8ne190000IKNS_4pairIKNS_12basic_stringIcNS_11char_traitsIcEENS_9allocatorIcEEEEN7mitsuba10TensorFile5FieldEEEEEPT_SF_(ptr noundef %3) #17
  ret ptr %4
}

; Function Attrs: mustprogress nounwind uwtable
define linkonce_odr hidden noundef ptr @_ZNSt3__114pointer_traitsIPKNS_17__hash_value_typeINS_12basic_stringIcNS_11char_traitsIcEENS_9allocatorIcEEEEN7mitsuba10TensorFile5FieldEEEE10pointer_toB8ne190000ERSC_(ptr noundef nonnull align 8 dereferenceable(72) %0) #2 comdat align 2 {
  %2 = alloca ptr, align 8
  store ptr %0, ptr %2, align 8
  %3 = load ptr, ptr %2, align 8
  ret ptr %3
}

; Function Attrs: mustprogress nounwind uwtable
define linkonce_odr hidden noundef nonnull align 8 dereferenceable(72) ptr @_ZNSt3__111__hash_nodeINS_17__hash_value_typeINS_12basic_stringIcNS_11char_traitsIcEENS_9allocatorIcEEEEN7mitsuba10TensorFile5FieldEEEPvE11__get_valueB8ne190000Ev(ptr noundef nonnull align 8 dereferenceable(88) %0) #2 comdat align 2 {
  %2 = alloca ptr, align 8
  store ptr %0, ptr %2, align 8
  %3 = load ptr, ptr %2, align 8
  %4 = getelementptr inbounds %"struct.std::__1::__hash_node", ptr %3, i32 0, i32 2
  ret ptr %4
}

; Function Attrs: mustprogress nounwind uwtable
define linkonce_odr hidden noundef ptr @_ZNSt3__116__hash_node_baseIPNS_11__hash_nodeINS_17__hash_value_typeINS_12basic_stringIcNS_11char_traitsIcEENS_9allocatorIcEEEEN7mitsuba10TensorFile5FieldEEEPvEEE8__upcastB8ne190000Ev(ptr noundef nonnull align 8 dereferenceable(8) %0) #2 comdat align 2 {
  %2 = alloca ptr, align 8
  store ptr %0, ptr %2, align 8
  %3 = load ptr, ptr %2, align 8
  %4 = call noundef ptr @_ZNSt3__114pointer_traitsIPNS_16__hash_node_baseIPNS_11__hash_nodeINS_17__hash_value_typeINS_12basic_stringIcNS_11char_traitsIcEENS_9allocatorIcEEEEN7mitsuba10TensorFile5FieldEEEPvEEEEE10pointer_toB8ne190000ERSH_(ptr noundef nonnull align 8 dereferenceable(8) %3) #17
  ret ptr %4
}

; Function Attrs: mustprogress nounwind uwtable
define linkonce_odr hidden void @_ZNSt3__121__hash_const_iteratorIPNS_11__hash_nodeINS_17__hash_value_typeINS_12basic_stringIcNS_11char_traitsIcEENS_9allocatorIcEEEEN7mitsuba10TensorFile5FieldEEEPvEEEC2B8ne190000EPNS_16__hash_node_baseISF_EE(ptr noundef nonnull align 8 dereferenceable(8) %0, ptr noundef %1) unnamed_addr #2 comdat align 2 {
  %3 = alloca ptr, align 8
  %4 = alloca ptr, align 8
  store ptr %0, ptr %3, align 8
  store ptr %1, ptr %4, align 8
  %5 = load ptr, ptr %3, align 8
  %6 = getelementptr inbounds %"class.std::__1::__hash_const_iterator", ptr %5, i32 0, i32 0
  %7 = load ptr, ptr %4, align 8
  store ptr %7, ptr %6, align 8
  ret void
}

; Function Attrs: mustprogress nounwind uwtable
define linkonce_odr hidden noundef ptr @_ZNSt3__114pointer_traitsIPKNS_4pairIKNS_12basic_stringIcNS_11char_traitsIcEENS_9allocatorIcEEEEN7mitsuba10TensorFile5FieldEEEE10pointer_toB8ne190000ERSD_(ptr noundef nonnull align 8 dereferenceable(72) %0) #2 comdat align 2 {
  %2 = alloca ptr, align 8
  store ptr %0, ptr %2, align 8
  %3 = load ptr, ptr %2, align 8
  ret ptr %3
}

; Function Attrs: mustprogress nounwind uwtable
define linkonce_odr hidden noundef nonnull align 8 dereferenceable(72) ptr @_ZNKSt3__117__hash_value_typeINS_12basic_stringIcNS_11char_traitsIcEENS_9allocatorIcEEEEN7mitsuba10TensorFile5FieldEE11__get_valueB8ne190000Ev(ptr noundef nonnull align 8 dereferenceable(72) %0) #2 comdat align 2 {
  %2 = alloca ptr, align 8
  store ptr %0, ptr %2, align 8
  %3 = load ptr, ptr %2, align 8
  %4 = getelementptr inbounds %"struct.std::__1::__hash_value_type", ptr %3, i32 0, i32 0
  %5 = call noundef ptr @_ZNSt3__17launderB8ne190000IKNS_4pairIKNS_12basic_stringIcNS_11char_traitsIcEENS_9allocatorIcEEEEN7mitsuba10TensorFile5FieldEEEEEPT_SF_(ptr noundef %4) #17
  ret ptr %5
}

; Function Attrs: mustprogress nounwind uwtable
define linkonce_odr hidden noundef ptr @_ZNKSt3__121__hash_const_iteratorIPNS_11__hash_nodeINS_17__hash_value_typeINS_12basic_stringIcNS_11char_traitsIcEENS_9allocatorIcEEEEN7mitsuba10TensorFile5FieldEEEPvEEEptB8ne190000Ev(ptr noundef nonnull align 8 dereferenceable(8) %0) #2 comdat align 2 {
  %2 = alloca ptr, align 8
  store ptr %0, ptr %2, align 8
  %3 = load ptr, ptr %2, align 8
  %4 = getelementptr inbounds %"class.std::__1::__hash_const_iterator", ptr %3, i32 0, i32 0
  %5 = load ptr, ptr %4, align 8
  %6 = call noundef ptr @_ZNSt3__116__hash_node_baseIPNS_11__hash_nodeINS_17__hash_value_typeINS_12basic_stringIcNS_11char_traitsIcEENS_9allocatorIcEEEEN7mitsuba10TensorFile5FieldEEEPvEEE8__upcastB8ne190000Ev(ptr noundef nonnull align 8 dereferenceable(8) %5) #17
  %7 = call noundef nonnull align 8 dereferenceable(72) ptr @_ZNSt3__111__hash_nodeINS_17__hash_value_typeINS_12basic_stringIcNS_11char_traitsIcEENS_9allocatorIcEEEEN7mitsuba10TensorFile5FieldEEEPvE11__get_valueB8ne190000Ev(ptr noundef nonnull align 8 dereferenceable(88) %6)
  %8 = call noundef ptr @_ZNSt3__114pointer_traitsIPKNS_17__hash_value_typeINS_12basic_stringIcNS_11char_traitsIcEENS_9allocatorIcEEEEN7mitsuba10TensorFile5FieldEEEE10pointer_toB8ne190000ERSC_(ptr noundef nonnull align 8 dereferenceable(72) %7) #17
  ret ptr %8
}

; Function Attrs: mustprogress nounwind uwtable
define linkonce_odr hidden noundef zeroext i1 @_ZNSt3__1eqB8ne190000ERKNS_21__hash_const_iteratorIPNS_11__hash_nodeINS_17__hash_value_typeINS_12basic_stringIcNS_11char_traitsIcEENS_9allocatorIcEEEEN7mitsuba10TensorFile5FieldEEEPvEEEESI_(ptr noundef nonnull align 8 dereferenceable(8) %0, ptr noundef nonnull align 8 dereferenceable(8) %1) #2 comdat {
  %3 = alloca ptr, align 8
  %4 = alloca ptr, align 8
  store ptr %0, ptr %3, align 8
  store ptr %1, ptr %4, align 8
  %5 = load ptr, ptr %3, align 8
  %6 = getelementptr inbounds %"class.std::__1::__hash_const_iterator", ptr %5, i32 0, i32 0
  %7 = load ptr, ptr %6, align 8
  %8 = load ptr, ptr %4, align 8
  %9 = getelementptr inbounds %"class.std::__1::__hash_const_iterator", ptr %8, i32 0, i32 0
  %10 = load ptr, ptr %9, align 8
  %11 = icmp eq ptr %7, %10
  ret i1 %11
}

; Function Attrs: mustprogress nounwind uwtable
define linkonce_odr hidden ptr @_ZNKSt3__112__hash_tableINS_17__hash_value_typeINS_12basic_stringIcNS_11char_traitsIcEENS_9allocatorIcEEEEN7mitsuba10TensorFile5FieldEEENS_22__unordered_map_hasherIS7_SB_NS_4hashIS7_EENS_8equal_toIS7_EELb1EEENS_21__unordered_map_equalIS7_SB_SG_SE_Lb1EEENS5_ISB_EEE3endEv(ptr noundef nonnull align 8 dereferenceable(36) %0) #2 comdat align 2 {
  %2 = alloca %"class.std::__1::__hash_const_iterator", align 8
  %3 = alloca ptr, align 8
  store ptr %0, ptr %3, align 8
  call void @_ZNSt3__121__hash_const_iteratorIPNS_11__hash_nodeINS_17__hash_value_typeINS_12basic_stringIcNS_11char_traitsIcEENS_9allocatorIcEEEEN7mitsuba10TensorFile5FieldEEEPvEEEC2B8ne190000EPNS_16__hash_node_baseISF_EE(ptr noundef nonnull align 8 dereferenceable(8) %2, ptr noundef null) #17
  %4 = getelementptr inbounds %"class.std::__1::__hash_const_iterator", ptr %2, i32 0, i32 0
  %5 = load ptr, ptr %4, align 8
  ret ptr %5
}

; Function Attrs: mustprogress nounwind uwtable
define linkonce_odr hidden void @_ZNSt3__125__hash_map_const_iteratorINS_21__hash_const_iteratorIPNS_11__hash_nodeINS_17__hash_value_typeINS_12basic_stringIcNS_11char_traitsIcEENS_9allocatorIcEEEEN7mitsuba10TensorFile5FieldEEEPvEEEEEC2B8ne190000ESH_(ptr noundef nonnull align 8 dereferenceable(8) %0, ptr %1) unnamed_addr #2 comdat align 2 {
  %3 = alloca %"class.std::__1::__hash_const_iterator", align 8
  %4 = alloca ptr, align 8
  %5 = getelementptr inbounds %"class.std::__1::__hash_const_iterator", ptr %3, i32 0, i32 0
  store ptr %1, ptr %5, align 8
  store ptr %0, ptr %4, align 8
  %6 = load ptr, ptr %4, align 8
  %7 = getelementptr inbounds %"class.std::__1::__hash_map_const_iterator", ptr %6, i32 0, i32 0
  call void @llvm.memcpy.p0.p0.i64(ptr align 8 %7, ptr align 8 %3, i64 8, i1 false)
  ret void
}

; Function Attrs: mustprogress uwtable
define linkonce_odr hidden noundef ptr @_ZNKSt3__125__hash_map_const_iteratorINS_21__hash_const_iteratorIPNS_11__hash_nodeINS_17__hash_value_typeINS_12basic_stringIcNS_11char_traitsIcEENS_9allocatorIcEEEEN7mitsuba10TensorFile5FieldEEEPvEEEEEptB8ne190000Ev(ptr noundef nonnull align 8 dereferenceable(8) %0) #0 comdat align 2 {
  %2 = alloca ptr, align 8
  store ptr %0, ptr %2, align 8
  %3 = load ptr, ptr %2, align 8
  %4 = getelementptr inbounds %"class.std::__1::__hash_map_const_iterator", ptr %3, i32 0, i32 0
  %5 = call noundef ptr @_ZNKSt3__121__hash_const_iteratorIPNS_11__hash_nodeINS_17__hash_value_typeINS_12basic_stringIcNS_11char_traitsIcEENS_9allocatorIcEEEEN7mitsuba10TensorFile5FieldEEEPvEEEptB8ne190000Ev(ptr noundef nonnull align 8 dereferenceable(8) %4)
  %6 = call noundef nonnull align 8 dereferenceable(72) ptr @_ZNKSt3__117__hash_value_typeINS_12basic_stringIcNS_11char_traitsIcEENS_9allocatorIcEEEEN7mitsuba10TensorFile5FieldEE11__get_valueB8ne190000Ev(ptr noundef nonnull align 8 dereferenceable(72) %5)
  %7 = call noundef ptr @_ZNSt3__114pointer_traitsIPKNS_4pairIKNS_12basic_stringIcNS_11char_traitsIcEENS_9allocatorIcEEEEN7mitsuba10TensorFile5FieldEEEE10pointer_toB8ne190000ERSD_(ptr noundef nonnull align 8 dereferenceable(72) %6) #17
  ret ptr %7
}

; Function Attrs: mustprogress nounwind uwtable
define linkonce_odr hidden noundef zeroext i1 @_ZNSt3__1eqB8ne190000ERKNS_25__hash_map_const_iteratorINS_21__hash_const_iteratorIPNS_11__hash_nodeINS_17__hash_value_typeINS_12basic_stringIcNS_11char_traitsIcEENS_9allocatorIcEEEEN7mitsuba10TensorFile5FieldEEEPvEEEEEESK_(ptr noundef nonnull align 8 dereferenceable(8) %0, ptr noundef nonnull align 8 dereferenceable(8) %1) #2 comdat {
  %3 = alloca ptr, align 8
  %4 = alloca ptr, align 8
  store ptr %0, ptr %3, align 8
  store ptr %1, ptr %4, align 8
  %5 = load ptr, ptr %3, align 8
  %6 = getelementptr inbounds %"class.std::__1::__hash_map_const_iterator", ptr %5, i32 0, i32 0
  %7 = load ptr, ptr %4, align 8
  %8 = getelementptr inbounds %"class.std::__1::__hash_map_const_iterator", ptr %7, i32 0, i32 0
  %9 = call noundef zeroext i1 @_ZNSt3__1eqB8ne190000ERKNS_21__hash_const_iteratorIPNS_11__hash_nodeINS_17__hash_value_typeINS_12basic_stringIcNS_11char_traitsIcEENS_9allocatorIcEEEEN7mitsuba10TensorFile5FieldEEEPvEEEESI_(ptr noundef nonnull align 8 dereferenceable(8) %6, ptr noundef nonnull align 8 dereferenceable(8) %8)
  ret i1 %9
}

; Function Attrs: mustprogress nounwind uwtable
define linkonce_odr hidden ptr @_ZNKSt3__113unordered_mapINS_12basic_stringIcNS_11char_traitsIcEENS_9allocatorIcEEEEN7mitsuba10TensorFile5FieldENS_4hashIS6_EENS_8equal_toIS6_EENS4_INS_4pairIKS6_S9_EEEEE3endB8ne190000Ev(ptr noundef nonnull align 8 dereferenceable(40) %0) #2 comdat align 2 {
  %2 = alloca %"class.std::__1::__hash_map_const_iterator", align 8
  %3 = alloca ptr, align 8
  %4 = alloca %"class.std::__1::__hash_const_iterator", align 8
  store ptr %0, ptr %3, align 8
  %5 = load ptr, ptr %3, align 8
  %6 = getelementptr inbounds %"class.std::__1::unordered_map", ptr %5, i32 0, i32 0
  %7 = call ptr @_ZNKSt3__112__hash_tableINS_17__hash_value_typeINS_12basic_stringIcNS_11char_traitsIcEENS_9allocatorIcEEEEN7mitsuba10TensorFile5FieldEEENS_22__unordered_map_hasherIS7_SB_NS_4hashIS7_EENS_8equal_toIS7_EELb1EEENS_21__unordered_map_equalIS7_SB_SG_SE_Lb1EEENS5_ISB_EEE3endEv(ptr noundef nonnull align 8 dereferenceable(36) %6) #17
  %8 = getelementptr inbounds %"class.std::__1::__hash_const_iterator", ptr %4, i32 0, i32 0
  store ptr %7, ptr %8, align 8
  %9 = getelementptr inbounds %"class.std::__1::__hash_const_iterator", ptr %4, i32 0, i32 0
  %10 = load ptr, ptr %9, align 8
  call void @_ZNSt3__125__hash_map_const_iteratorINS_21__hash_const_iteratorIPNS_11__hash_nodeINS_17__hash_value_typeINS_12basic_stringIcNS_11char_traitsIcEENS_9allocatorIcEEEEN7mitsuba10TensorFile5FieldEEEPvEEEEEC2B8ne190000ESH_(ptr noundef nonnull align 8 dereferenceable(8) %2, ptr %10) #17
  %11 = getelementptr inbounds %"class.std::__1::__hash_map_const_iterator", ptr %2, i32 0, i32 0
  %12 = getelementptr inbounds %"class.std::__1::__hash_const_iterator", ptr %11, i32 0, i32 0
  %13 = load ptr, ptr %12, align 8
  ret ptr %13
}

; Function Attrs: mustprogress uwtable
define linkonce_odr hidden ptr @_ZNKSt3__113unordered_mapINS_12basic_stringIcNS_11char_traitsIcEENS_9allocatorIcEEEEN7mitsuba10TensorFile5FieldENS_4hashIS6_EENS_8equal_toIS6_EENS4_INS_4pairIKS6_S9_EEEEE4findB8ne190000ERSF_(ptr noundef nonnull align 8 dereferenceable(40) %0, ptr noundef nonnull align 8 dereferenceable(24) %1) #0 comdat align 2 {
  %3 = alloca %"class.std::__1::__hash_map_const_iterator", align 8
  %4 = alloca ptr, align 8
  %5 = alloca ptr, align 8
  %6 = alloca %"class.std::__1::__hash_const_iterator", align 8
  store ptr %0, ptr %4, align 8
  store ptr %1, ptr %5, align 8
  %7 = load ptr, ptr %4, align 8
  %8 = getelementptr inbounds %"class.std::__1::unordered_map", ptr %7, i32 0, i32 0
  %9 = load ptr, ptr %5, align 8
  %10 = call ptr @_ZNKSt3__112__hash_tableINS_17__hash_value_typeINS_12basic_stringIcNS_11char_traitsIcEENS_9allocatorIcEEEEN7mitsuba10TensorFile5FieldEEENS_22__unordered_map_hasherIS7_SB_NS_4hashIS7_EENS_8equal_toIS7_EELb1EEENS_21__unordered_map_equalIS7_SB_SG_SE_Lb1EEENS5_ISB_EEE4findIS7_EENS_21__hash_const_iteratorIPNS_11__hash_nodeISB_PvEEEERKT_(ptr noundef nonnull align 8 dereferenceable(36) %8, ptr noundef nonnull align 8 dereferenceable(24) %9)
  %11 = getelementptr inbounds %"class.std::__1::__hash_const_iterator", ptr %6, i32 0, i32 0
  store ptr %10, ptr %11, align 8
  %12 = getelementptr inbounds %"class.std::__1::__hash_const_iterator", ptr %6, i32 0, i32 0
  %13 = load ptr, ptr %12, align 8
  call void @_ZNSt3__125__hash_map_const_iteratorINS_21__hash_const_iteratorIPNS_11__hash_nodeINS_17__hash_value_typeINS_12basic_stringIcNS_11char_traitsIcEENS_9allocatorIcEEEEN7mitsuba10TensorFile5FieldEEEPvEEEEEC2B8ne190000ESH_(ptr noundef nonnull align 8 dereferenceable(8) %3, ptr %13) #17
  %14 = getelementptr inbounds %"class.std::__1::__hash_map_const_iterator", ptr %3, i32 0, i32 0
  %15 = getelementptr inbounds %"class.std::__1::__hash_const_iterator", ptr %14, i32 0, i32 0
  %16 = load ptr, ptr %15, align 8
  ret ptr %16
}

; Function Attrs: mustprogress uwtable
define noundef nonnull align 8 dereferenceable(48) ptr @_ZNK7mitsuba10TensorFile5fieldERKNSt3__112basic_stringIcNS1_11char_traitsIcEENS1_9allocatorIcEEEE(ptr noundef nonnull align 8 dereferenceable(64) %0, ptr noundef nonnull align 8 dereferenceable(24) %1) #0 align 2 personality ptr @__gxx_personality_v0 {
  %3 = alloca ptr, align 8
  %4 = alloca ptr, align 8
  %5 = alloca %"class.std::__1::__hash_map_const_iterator", align 8
  %6 = alloca %"class.std::__1::__hash_map_const_iterator", align 8
  %7 = alloca %"class.std::__1::basic_string", align 8
  %8 = alloca ptr, align 8
  %9 = alloca i32, align 4
  store ptr %0, ptr %3, align 8
  store ptr %1, ptr %4, align 8
  %10 = load ptr, ptr %3, align 8
  %11 = getelementptr inbounds %"class.mitsuba::TensorFile", ptr %10, i32 0, i32 1
  %12 = load ptr, ptr %4, align 8
  %13 = call ptr @_ZNKSt3__113unordered_mapINS_12basic_stringIcNS_11char_traitsIcEENS_9allocatorIcEEEEN7mitsuba10TensorFile5FieldENS_4hashIS6_EENS_8equal_toIS6_EENS4_INS_4pairIKS6_S9_EEEEE4findB8ne190000ERSF_(ptr noundef nonnull align 8 dereferenceable(40) %11, ptr noundef nonnull align 8 dereferenceable(24) %12)
  %14 = getelementptr inbounds %"class.std::__1::__hash_map_const_iterator", ptr %5, i32 0, i32 0
  %15 = getelementptr inbounds %"class.std::__1::__hash_const_iterator", ptr %14, i32 0, i32 0
  store ptr %13, ptr %15, align 8
  %16 = getelementptr inbounds %"class.mitsuba::TensorFile", ptr %10, i32 0, i32 1
  %17 = call ptr @_ZNKSt3__113unordered_mapINS_12basic_stringIcNS_11char_traitsIcEENS_9allocatorIcEEEEN7mitsuba10TensorFile5FieldENS_4hashIS6_EENS_8equal_toIS6_EENS4_INS_4pairIKS6_S9_EEEEE3endB8ne190000Ev(ptr noundef nonnull align 8 dereferenceable(40) %16) #17
  %18 = getelementptr inbounds %"class.std::__1::__hash_map_const_iterator", ptr %6, i32 0, i32 0
  %19 = getelementptr inbounds %"class.std::__1::__hash_const_iterator", ptr %18, i32 0, i32 0
  store ptr %17, ptr %19, align 8
  %20 = call noundef zeroext i1 @_ZNSt3__1eqB8ne190000ERKNS_25__hash_map_const_iteratorINS_21__hash_const_iteratorIPNS_11__hash_nodeINS_17__hash_value_typeINS_12basic_stringIcNS_11char_traitsIcEENS_9allocatorIcEEEEN7mitsuba10TensorFile5FieldEEEPvEEEEEESK_(ptr noundef nonnull align 8 dereferenceable(8) %5, ptr noundef nonnull align 8 dereferenceable(8) %6)
  br i1 %20, label %21, label %31

21:                                               ; preds = %2
  br label %22

22:                                               ; preds = %21
  %23 = load ptr, ptr @_ZN7mitsuba10TensorFile7m_classE, align 8
  %24 = load ptr, ptr %4, align 8
  call void @_ZN10tinyformat6formatIJNSt3__112basic_stringIcNS1_11char_traitsIcEENS1_9allocatorIcEEEEEEES7_PKcDpRKT_(ptr dead_on_unwind writable sret(%"class.std::__1::basic_string") align 8 %7, ptr noundef @.str.9, ptr noundef nonnull align 8 dereferenceable(24) %24)
  invoke void @_ZN7mitsuba6detail5ThrowENS_8LogLevelEPKNS_5ClassEPKciRKNSt3__112basic_stringIcNS7_11char_traitsIcEENS7_9allocatorIcEEEE(i32 noundef 400, ptr noundef %23, ptr noundef @.str, i32 noundef 63, ptr noundef nonnull align 8 dereferenceable(24) %7) #18
          to label %25 unwind label %26

25:                                               ; preds = %22
  unreachable

26:                                               ; preds = %22
  %27 = landingpad { ptr, i32 }
          cleanup
  %28 = extractvalue { ptr, i32 } %27, 0
  store ptr %28, ptr %8, align 8
  %29 = extractvalue { ptr, i32 } %27, 1
  store i32 %29, ptr %9, align 4
  call void @_ZNSt3__112basic_stringIcNS_11char_traitsIcEENS_9allocatorIcEEED1Ev(ptr noundef nonnull align 8 dereferenceable(24) %7) #17
  br label %34

30:                                               ; No predecessors!
  br label %31

31:                                               ; preds = %30, %2
  %32 = call noundef ptr @_ZNKSt3__125__hash_map_const_iteratorINS_21__hash_const_iteratorIPNS_11__hash_nodeINS_17__hash_value_typeINS_12basic_stringIcNS_11char_traitsIcEENS_9allocatorIcEEEEN7mitsuba10TensorFile5FieldEEEPvEEEEEptB8ne190000Ev(ptr noundef nonnull align 8 dereferenceable(8) %5)
  %33 = getelementptr inbounds %"struct.std::__1::pair", ptr %32, i32 0, i32 1
  ret ptr %33

34:                                               ; preds = %26
  %35 = load ptr, ptr %8, align 8
  %36 = load i32, ptr %9, align 4
  %37 = insertvalue { ptr, i32 } poison, ptr %35, 0
  %38 = insertvalue { ptr, i32 } %37, i32 %36, 1
  resume { ptr, i32 } %38
}